target datalayout = "e-m:e-p270:32:32-p271:32:32-p272:64:64-i64:64-i128:128-f80:128-n8:16:32:64-S128"
target triple = "x86_64-pc-linux-gnu"

%struct.lv_point_t = type { i32, i32 }
%struct.lv_area_t = type { i32, i32, i32, i32 }
%struct._lv_obj_t = type { ptr, ptr, ptr, ptr, ptr, %struct.lv_area_t, i32, i16, i16 }
%struct._lv_obj_spec_attr_t = type { ptr, ptr, %struct.lv_event_list_t, %struct.lv_point_t, i32, i32, i16, i16 }
%struct.lv_event_list_t = type { %struct._lv_array_t, i8 }
%struct._lv_array_t = type { ptr, i32, i32, i32, i8 }

; Function Attrs: nounwind uwtable
define void @lv_obj_move_children_by(ptr noundef %0, i32 noundef %1, i32 noundef %2, i1 noundef zeroext %3) #0 {
  %5 = alloca ptr, align 8
  %6 = alloca i32, align 4
  %7 = alloca i32, align 4
  %8 = alloca i8, align 1
  %9 = alloca i32, align 4
  %10 = alloca i32, align 4
  %11 = alloca ptr, align 8
  %12 = alloca i32, align 4
  store ptr %0, ptr %5, align 8, !tbaa !3
  store i32 %1, ptr %6, align 4, !tbaa !7
  store i32 %2, ptr %7, align 4, !tbaa !7
  %13 = zext i1 %3 to i8
  store i8 %13, ptr %8, align 1, !tbaa !10
  call void @llvm.lifetime.start.p0(i64 4, ptr %9) #5
  call void @llvm.lifetime.start.p0(i64 4, ptr %10) #5
  %14 = load ptr, ptr %5, align 8, !tbaa !3
  %15 = call i32 @lv_obj_get_child_count(ptr noundef %14)
  store i32 %15, ptr %10, align 4, !tbaa !7
  store i32 0, ptr %9, align 4, !tbaa !7
  br label %16

16:                                               ; preds = %67, %4
  %17 = load i32, ptr %9, align 4, !tbaa !7
  %18 = load i32, ptr %10, align 4, !tbaa !7
  %19 = icmp ult i32 %17, %18
  br i1 %19, label %20, label %70

20:                                               ; preds = %16
  call void @llvm.lifetime.start.p0(i64 8, ptr %11) #5
  %21 = load ptr, ptr %5, align 8, !tbaa !3
  %22 = getelementptr inbounds nuw %struct._lv_obj_t, ptr %21, i32 0, i32 2
  %23 = load ptr, ptr %22, align 8, !tbaa !21
  %24 = getelementptr inbounds nuw %struct._lv_obj_spec_attr_t, ptr %23, i32 0, i32 0
  %25 = load ptr, ptr %24, align 8, !tbaa !27
  %26 = load i32, ptr %9, align 4, !tbaa !7
  %27 = zext i32 %26 to i64
  %28 = getelementptr inbounds nuw ptr, ptr %25, i64 %27
  %29 = load ptr, ptr %28, align 8, !tbaa !3
  store ptr %29, ptr %11, align 8, !tbaa !3
  %30 = load i8, ptr %8, align 1, !tbaa !10, !range !12, !noundef !13
  %31 = trunc i8 %30 to i1
  br i1 %31, label %32, label %36

32:                                               ; preds = %20
  %33 = load ptr, ptr %11, align 8, !tbaa !3
  %34 = call zeroext i1 @lv_obj_has_flag(ptr noundef %33, i32 noundef 262144)
  br i1 %34, label %35, label %36

35:                                               ; preds = %32
  store i32 4, ptr %12, align 4
  br label %64

36:                                               ; preds = %32, %20
  %37 = load i32, ptr %6, align 4, !tbaa !7
  %38 = load ptr, ptr %11, align 8, !tbaa !3
  %39 = getelementptr inbounds nuw %struct._lv_obj_t, ptr %38, i32 0, i32 5
  %40 = getelementptr inbounds nuw %struct.lv_area_t, ptr %39, i32 0, i32 0
  %41 = load i32, ptr %40, align 8, !tbaa !20
  %42 = add nsw i32 %41, %37
  store i32 %42, ptr %40, align 8, !tbaa !20
  %43 = load i32, ptr %7, align 4, !tbaa !7
  %44 = load ptr, ptr %11, align 8, !tbaa !3
  %45 = getelementptr inbounds nuw %struct._lv_obj_t, ptr %44, i32 0, i32 5
  %46 = getelementptr inbounds nuw %struct.lv_area_t, ptr %45, i32 0, i32 1
  %47 = load i32, ptr %46, align 4, !tbaa !14
  %48 = add nsw i32 %47, %43
  store i32 %48, ptr %46, align 4, !tbaa !14
  %49 = load i32, ptr %6, align 4, !tbaa !7
  %50 = load ptr, ptr %11, align 8, !tbaa !3
  %51 = getelementptr inbounds nuw %struct._lv_obj_t, ptr %50, i32 0, i32 5
  %52 = getelementptr inbounds nuw %struct.lv_area_t, ptr %51, i32 0, i32 2
  %53 = load i32, ptr %52, align 8, !tbaa !19
  %54 = add nsw i32 %53, %49
  store i32 %54, ptr %52, align 8, !tbaa !19
  %55 = load i32, ptr %7, align 4, !tbaa !7
  %56 = load ptr, ptr %11, align 8, !tbaa !3
  %57 = getelementptr inbounds nuw %struct._lv_obj_t, ptr %56, i32 0, i32 5
  %58 = getelementptr inbounds nuw %struct.lv_area_t, ptr %57, i32 0, i32 3
  %59 = load i32, ptr %58, align 4, !tbaa !18
  %60 = add nsw i32 %59, %55
  store i32 %60, ptr %58, align 4, !tbaa !18
  %61 = load ptr, ptr %11, align 8, !tbaa !3
  %62 = load i32, ptr %6, align 4, !tbaa !7
  %63 = load i32, ptr %7, align 4, !tbaa !7
  call void @lv_obj_move_children_by(ptr noundef %61, i32 noundef %62, i32 noundef %63, i1 noundef zeroext false)
  store i32 0, ptr %12, align 4
  br label %64

64:                                               ; preds = %36, %35
  call void @llvm.lifetime.end.p0(i64 8, ptr %11) #5
  %65 = load i32, ptr %12, align 4
  switch i32 %65, label %71 [
    i32 0, label %66
    i32 4, label %67
  ]

66:                                               ; preds = %64
  br label %67

67:                                               ; preds = %66, %64
  %68 = load i32, ptr %9, align 4, !tbaa !7
  %69 = add i32 %68, 1
  store i32 %69, ptr %9, align 4, !tbaa !7
  br label %16, !llvm.loop !53

70:                                               ; preds = %16
  call void @llvm.lifetime.end.p0(i64 4, ptr %10) #5
  call void @llvm.lifetime.end.p0(i64 4, ptr %9) #5
  ret void

71:                                               ; preds = %64
  unreachable
}