; Function Attrs: nounwind uwtable
define void @lv_obj_move_children_by(ptr noundef %0, i32 noundef %1, i32 noundef %2, i1 noundef zeroext %3) local_unnamed_addr #0 {
  %5 = tail call i32 @lv_obj_get_child_count(ptr noundef %0) #8
  %.not = icmp eq i32 %5, 0
  br i1 %.not, label %._crit_edge, label %.lr.ph

.lr.ph:                                           ; preds = %4
  %6 = getelementptr inbounds nuw i8, ptr %0, i64 16
  %wide.trip.count24 = zext i32 %5 to i64
  br i1 %3, label %.lr.ph.split.us, label %.lr.ph.split

.lr.ph.split.us:                                  ; preds = %.lr.ph, %25
  %indvars.iv21 = phi i64 [ %indvars.iv.next22, %25 ], [ 0, %.lr.ph ]
  %7 = load ptr, ptr %6, align 8, !tbaa !6
  %8 = load ptr, ptr %7, align 8, !tbaa !19
  %9 = getelementptr inbounds nuw ptr, ptr %8, i64 %indvars.iv21
  %10 = load ptr, ptr %9, align 8, !tbaa !20
  %11 = tail call zeroext i1 @lv_obj_has_flag(ptr noundef %10, i32 noundef 262144) #8
  br i1 %11, label %25, label %12

12:                                               ; preds = %.lr.ph.split.us
  %13 = getelementptr inbounds nuw i8, ptr %10, i64 40
  %14 = load i32, ptr %13, align 8, !tbaa !22
  %15 = add nsw i32 %14, %1
  store i32 %15, ptr %13, align 8, !tbaa !22
  %16 = getelementptr inbounds nuw i8, ptr %10, i64 44
  %17 = load i32, ptr %16, align 4, !tbaa !29
  %18 = add nsw i32 %17, %2
  store i32 %18, ptr %16, align 4, !tbaa !29
  %19 = getelementptr inbounds nuw i8, ptr %10, i64 48
  %20 = load i32, ptr %19, align 8, !tbaa !21
  %21 = add nsw i32 %20, %1
  store i32 %21, ptr %19, align 8, !tbaa !21
  %22 = getelementptr inbounds nuw i8, ptr %10, i64 52
  %23 = load i32, ptr %22, align 4, !tbaa !28
  %24 = add nsw i32 %23, %2
  store i32 %24, ptr %22, align 4, !tbaa !28
  tail call void @lv_obj_move_children_by(ptr noundef %10, i32 noundef %1, i32 noundef %2, i1 noundef zeroext false)
  br label %25

25:                                               ; preds = %12, %.lr.ph.split.us
  %indvars.iv.next22 = add nuw nsw i64 %indvars.iv21, 1
  %exitcond25.not = icmp eq i64 %indvars.iv.next22, %wide.trip.count24
  br i1 %exitcond25.not, label %._crit_edge, label %.lr.ph.split.us, !llvm.loop !51

.lr.ph.split:                                     ; preds = %.lr.ph, %.lr.ph.split
  %indvars.iv = phi i64 [ %indvars.iv.next, %.lr.ph.split ], [ 0, %.lr.ph ]
  %26 = load ptr, ptr %6, align 8, !tbaa !6
  %27 = load ptr, ptr %26, align 8, !tbaa !19
  %28 = getelementptr inbounds nuw ptr, ptr %27, i64 %indvars.iv
  %29 = load ptr, ptr %28, align 8, !tbaa !20
  %30 = getelementptr inbounds nuw i8, ptr %29, i64 40
  %31 = load i32, ptr %30, align 8, !tbaa !22
  %32 = add nsw i32 %31, %1
  store i32 %32, ptr %30, align 8, !tbaa !22
  %33 = getelementptr inbounds nuw i8, ptr %29, i64 44
  %34 = load i32, ptr %33, align 4, !tbaa !29
  %35 = add nsw i32 %34, %2
  store i32 %35, ptr %33, align 4, !tbaa !29
  %36 = getelementptr inbounds nuw i8, ptr %29, i64 48
  %37 = load i32, ptr %36, align 8, !tbaa !21
  %38 = add nsw i32 %37, %1
  store i32 %38, ptr %36, align 8, !tbaa !21
  %39 = getelementptr inbounds nuw i8, ptr %29, i64 52
  %40 = load i32, ptr %39, align 4, !tbaa !28
  %41 = add nsw i32 %40, %2
  store i32 %41, ptr %39, align 4, !tbaa !28
  tail call void @lv_obj_move_children_by(ptr noundef %29, i32 noundef %1, i32 noundef %2, i1 noundef zeroext false)
  %indvars.iv.next = add nuw nsw i64 %indvars.iv, 1
  %exitcond.not = icmp eq i64 %indvars.iv.next, %wide.trip.count24
  br i1 %exitcond.not, label %._crit_edge, label %.lr.ph.split, !llvm.loop !51

._crit_edge:                                      ; preds = %.lr.ph.split, %25, %4
  ret void
}